target datalayout = "e-m:e-p270:32:32-p271:32:32-p272:64:64-i64:64-i128:128-f80:128-n8:16:32:64-S128"
target triple = "x86_64-pc-linux-gnu"

%struct.SMgrRelationData = type { %struct.RelFileLocatorBackend, i32, [4 x i32], i32, [4 x i32], [4 x ptr], i32, %struct.dlist_node }
%struct.RelFileLocatorBackend = type { %struct.RelFileLocator, i32 }
%struct.RelFileLocator = type { i32, i32, i32 }
%struct.dlist_node = type { ptr, ptr }
%struct._MdfdVec = type { i32, i32 }

@MdCxt = internal global ptr null, align 8
@InRecovery = external global i8, align 1
@.str.2 = private unnamed_addr constant [5 x i8] c"md.c\00", align 1
@.str.14 = private unnamed_addr constant [67 x i8] c"could not truncate file \22%s\22 to %u blocks: it's only %u blocks now\00", align 1
@__func__.mdtruncate = private unnamed_addr constant [11 x i8] c"mdtruncate\00", align 1
@.str.15 = private unnamed_addr constant [33 x i8] c"could not truncate file \22%s\22: %m\00", align 1
@.str.16 = private unnamed_addr constant [46 x i8] c"could not truncate file \22%s\22 to %u blocks: %m\00", align 1

; Function Attrs: nounwind uwtable
define internal void @_fdvec_resize(ptr noundef %0, i32 noundef %1, i32 noundef %2) #0 {
  %4 = alloca ptr, align 8
  %5 = alloca i32, align 4
  %6 = alloca i32, align 4
  store ptr %0, ptr %4, align 8
  store i32 %1, ptr %5, align 4
  store i32 %2, ptr %6, align 4
  %7 = load i32, ptr %6, align 4
  %8 = icmp eq i32 %7, 0
  br i1 %8, label %9, label %30

9:                                                ; preds = %3
  %10 = load ptr, ptr %4, align 8
  %11 = getelementptr inbounds nuw %struct.SMgrRelationData, ptr %10, i32 0, i32 4
  %12 = load i32, ptr %5, align 4
  %13 = sext i32 %12 to i64
  %14 = getelementptr inbounds [4 x i32], ptr %11, i64 0, i64 %13
  %15 = load i32, ptr %14, align 4
  %16 = icmp sgt i32 %15, 0
  br i1 %16, label %17, label %29

17:                                               ; preds = %9
  %18 = load ptr, ptr %4, align 8
  %19 = getelementptr inbounds nuw %struct.SMgrRelationData, ptr %18, i32 0, i32 5
  %20 = load i32, ptr %5, align 4
  %21 = sext i32 %20 to i64
  %22 = getelementptr inbounds [4 x ptr], ptr %19, i64 0, i64 %21
  %23 = load ptr, ptr %22, align 8
  call void @pfree(ptr noundef %23)
  %24 = load ptr, ptr %4, align 8
  %25 = getelementptr inbounds nuw %struct.SMgrRelationData, ptr %24, i32 0, i32 5
  %26 = load i32, ptr %5, align 4
  %27 = sext i32 %26 to i64
  %28 = getelementptr inbounds [4 x ptr], ptr %25, i64 0, i64 %27
  store ptr null, ptr %28, align 8
  br label %29

29:                                               ; preds = %17, %9
  br label %77

30:                                               ; preds = %3
  %31 = load ptr, ptr %4, align 8
  %32 = getelementptr inbounds nuw %struct.SMgrRelationData, ptr %31, i32 0, i32 4
  %33 = load i32, ptr %5, align 4
  %34 = sext i32 %33 to i64
  %35 = getelementptr inbounds [4 x i32], ptr %32, i64 0, i64 %34
  %36 = load i32, ptr %35, align 4
  %37 = icmp eq i32 %36, 0
  br i1 %37, label %38, label %49

38:                                               ; preds = %30
  %39 = load ptr, ptr @MdCxt, align 8
  %40 = load i32, ptr %6, align 4
  %41 = sext i32 %40 to i64
  %42 = mul i64 8, %41
  %43 = call ptr @MemoryContextAlloc(ptr noundef %39, i64 noundef %42)
  %44 = load ptr, ptr %4, align 8
  %45 = getelementptr inbounds nuw %struct.SMgrRelationData, ptr %44, i32 0, i32 5
  %46 = load i32, ptr %5, align 4
  %47 = sext i32 %46 to i64
  %48 = getelementptr inbounds [4 x ptr], ptr %45, i64 0, i64 %47
  store ptr %43, ptr %48, align 8
  br label %76

49:                                               ; preds = %30
  %50 = load i32, ptr %6, align 4
  %51 = load ptr, ptr %4, align 8
  %52 = getelementptr inbounds nuw %struct.SMgrRelationData, ptr %51, i32 0, i32 4
  %53 = load i32, ptr %5, align 4
  %54 = sext i32 %53 to i64
  %55 = getelementptr inbounds [4 x i32], ptr %52, i64 0, i64 %54
  %56 = load i32, ptr %55, align 4
  %57 = icmp sgt i32 %50, %56
  br i1 %57, label %58, label %74

58:                                               ; preds = %49
  %59 = load ptr, ptr %4, align 8
  %60 = getelementptr inbounds nuw %struct.SMgrRelationData, ptr %59, i32 0, i32 5
  %61 = load i32, ptr %5, align 4
  %62 = sext i32 %61 to i64
  %63 = getelementptr inbounds [4 x ptr], ptr %60, i64 0, i64 %62
  %64 = load ptr, ptr %63, align 8
  %65 = load i32, ptr %6, align 4
  %66 = sext i32 %65 to i64
  %67 = mul i64 8, %66
  %68 = call ptr @repalloc(ptr noundef %64, i64 noundef %67)
  %69 = load ptr, ptr %4, align 8
  %70 = getelementptr inbounds nuw %struct.SMgrRelationData, ptr %69, i32 0, i32 5
  %71 = load i32, ptr %5, align 4
  %72 = sext i32 %71 to i64
  %73 = getelementptr inbounds [4 x ptr], ptr %70, i64 0, i64 %72
  store ptr %68, ptr %73, align 8
  br label %75

74:                                               ; preds = %49
  br label %75

75:                                               ; preds = %74, %58
  br label %76

76:                                               ; preds = %75, %38
  br label %77

77:                                               ; preds = %76, %29
  %78 = load i32, ptr %6, align 4
  %79 = load ptr, ptr %4, align 8
  %80 = getelementptr inbounds nuw %struct.SMgrRelationData, ptr %79, i32 0, i32 4
  %81 = load i32, ptr %5, align 4
  %82 = sext i32 %81 to i64
  %83 = getelementptr inbounds [4 x i32], ptr %80, i64 0, i64 %82
  store i32 %78, ptr %83, align 4
  ret void
}

; Function Attrs: nounwind uwtable
define dso_local void @mdtruncate(ptr noundef %0, i32 noundef %1, i32 noundef %2, i32 noundef %3) #0 {
  %5 = alloca ptr, align 8
  %6 = alloca i32, align 4
  %7 = alloca i32, align 4
  %8 = alloca i32, align 4
  %9 = alloca i32, align 4
  %10 = alloca i32, align 4
  %11 = alloca i32, align 4
  %12 = alloca ptr, align 8
  %13 = alloca i32, align 4
  store ptr %0, ptr %5, align 8
  store i32 %1, ptr %6, align 4
  store i32 %2, ptr %7, align 4
  store i32 %3, ptr %8, align 4
  call void @llvm.lifetime.start.p0(i64 4, ptr %9) #10
  call void @llvm.lifetime.start.p0(i64 4, ptr %10) #10
  %14 = load i32, ptr %8, align 4
  %15 = load i32, ptr %7, align 4
  %16 = icmp ugt i32 %14, %15
  br i1 %16, label %17, label %55

17:                                               ; preds = %4
  %18 = load i8, ptr @InRecovery, align 1, !range !4, !noundef !5
  %19 = trunc i8 %18 to i1
  br i1 %19, label %20, label %21

20:                                               ; preds = %17
  store i32 1, ptr %11, align 4
  br label %181

21:                                               ; preds = %17
  br label %22

22:                                               ; preds = %21
  br i1 true, label %23, label %25

23:                                               ; preds = %22
  %24 = call zeroext i1 @errstart_cold(i32 noundef 21, ptr noundef null) #12
  br i1 %24, label %27, label %52

25:                                               ; preds = %22
  %26 = call zeroext i1 @errstart(i32 noundef 21, ptr noundef null)
  br i1 %26, label %27, label %52

27:                                               ; preds = %25, %23
  %28 = load ptr, ptr %5, align 8
  %29 = getelementptr inbounds nuw %struct.SMgrRelationData, ptr %28, i32 0, i32 0
  %30 = getelementptr inbounds nuw %struct.RelFileLocatorBackend, ptr %29, i32 0, i32 0
  %31 = getelementptr inbounds nuw %struct.RelFileLocator, ptr %30, i32 0, i32 1
  %32 = load i32, ptr %31, align 4
  %33 = load ptr, ptr %5, align 8
  %34 = getelementptr inbounds nuw %struct.SMgrRelationData, ptr %33, i32 0, i32 0
  %35 = getelementptr inbounds nuw %struct.RelFileLocatorBackend, ptr %34, i32 0, i32 0
  %36 = getelementptr inbounds nuw %struct.RelFileLocator, ptr %35, i32 0, i32 0
  %37 = load i32, ptr %36, align 8
  %38 = load ptr, ptr %5, align 8
  %39 = getelementptr inbounds nuw %struct.SMgrRelationData, ptr %38, i32 0, i32 0
  %40 = getelementptr inbounds nuw %struct.RelFileLocatorBackend, ptr %39, i32 0, i32 0
  %41 = getelementptr inbounds nuw %struct.RelFileLocator, ptr %40, i32 0, i32 2
  %42 = load i32, ptr %41, align 8
  %43 = load ptr, ptr %5, align 8
  %44 = getelementptr inbounds nuw %struct.SMgrRelationData, ptr %43, i32 0, i32 0
  %45 = getelementptr inbounds nuw %struct.RelFileLocatorBackend, ptr %44, i32 0, i32 1
  %46 = load i32, ptr %45, align 4
  %47 = load i32, ptr %6, align 4
  %48 = call ptr @GetRelationPath(i32 noundef %32, i32 noundef %37, i32 noundef %42, i32 noundef %46, i32 noundef %47)
  %49 = load i32, ptr %8, align 4
  %50 = load i32, ptr %7, align 4
  %51 = call i32 (ptr, ...) @errmsg(ptr noundef @.str.14, ptr noundef %48, i32 noundef %49, i32 noundef %50)
  call void @errfinish(ptr noundef @.str.2, i32 noundef 1180, ptr noundef @__func__.mdtruncate)
  br label %52

52:                                               ; preds = %27, %25, %23
  unreachable

53:                                               ; No predecessors!
  br label %54

54:                                               ; preds = %53
  br label %55

55:                                               ; preds = %54, %4
  %56 = load i32, ptr %8, align 4
  %57 = load i32, ptr %7, align 4
  %58 = icmp eq i32 %56, %57
  br i1 %58, label %59, label %60

59:                                               ; preds = %55
  store i32 1, ptr %11, align 4
  br label %181

60:                                               ; preds = %55
  %61 = load ptr, ptr %5, align 8
  %62 = getelementptr inbounds nuw %struct.SMgrRelationData, ptr %61, i32 0, i32 4
  %63 = load i32, ptr %6, align 4
  %64 = sext i32 %63 to i64
  %65 = getelementptr inbounds [4 x i32], ptr %62, i64 0, i64 %64
  %66 = load i32, ptr %65, align 4
  store i32 %66, ptr %10, align 4
  br label %67

67:                                               ; preds = %179, %60
  %68 = load i32, ptr %10, align 4
  %69 = icmp sgt i32 %68, 0
  br i1 %69, label %70, label %180

70:                                               ; preds = %67
  call void @llvm.lifetime.start.p0(i64 8, ptr %12) #10
  %71 = load i32, ptr %10, align 4
  %72 = sub i32 %71, 1
  %73 = mul i32 %72, 131072
  store i32 %73, ptr %9, align 4
  %74 = load ptr, ptr %5, align 8
  %75 = getelementptr inbounds nuw %struct.SMgrRelationData, ptr %74, i32 0, i32 5
  %76 = load i32, ptr %6, align 4
  %77 = sext i32 %76 to i64
  %78 = getelementptr inbounds [4 x ptr], ptr %75, i64 0, i64 %77
  %79 = load ptr, ptr %78, align 8
  %80 = load i32, ptr %10, align 4
  %81 = sub i32 %80, 1
  %82 = sext i32 %81 to i64
  %83 = getelementptr inbounds %struct._MdfdVec, ptr %79, i64 %82
  store ptr %83, ptr %12, align 8
  %84 = load i32, ptr %9, align 4
  %85 = load i32, ptr %8, align 4
  %86 = icmp ugt i32 %84, %85
  br i1 %86, label %87, label %127

87:                                               ; preds = %70
  %88 = load ptr, ptr %12, align 8
  %89 = getelementptr inbounds nuw %struct._MdfdVec, ptr %88, i32 0, i32 0
  %90 = load i32, ptr %89, align 4
  %91 = call i32 @FileTruncate(i32 noundef %90, i64 noundef 0, i32 noundef 167772179)
  %92 = icmp slt i32 %91, 0
  br i1 %92, label %93, label %109

93:                                               ; preds = %87
  br label %94

94:                                               ; preds = %93
  br i1 true, label %95, label %97

95:                                               ; preds = %94
  %96 = call zeroext i1 @errstart_cold(i32 noundef 21, ptr noundef null) #12
  br i1 %96, label %99, label %106

97:                                               ; preds = %94
  %98 = call zeroext i1 @errstart(i32 noundef 21, ptr noundef null)
  br i1 %98, label %99, label %106

99:                                               ; preds = %97, %95
  %100 = call i32 @errcode_for_file_access()
  %101 = load ptr, ptr %12, align 8
  %102 = getelementptr inbounds nuw %struct._MdfdVec, ptr %101, i32 0, i32 0
  %103 = load i32, ptr %102, align 4
  %104 = call ptr @FilePathName(i32 noundef %103)
  %105 = call i32 (ptr, ...) @errmsg(ptr noundef @.str.15, ptr noundef %104)
  call void @errfinish(ptr noundef @.str.2, i32 noundef 1208, ptr noundef @__func__.mdtruncate)
  br label %106

106:                                              ; preds = %99, %97, %95
  unreachable

107:                                              ; No predecessors!
  br label %108

108:                                              ; preds = %107
  br label %109

109:                                              ; preds = %108, %87
  %110 = load ptr, ptr %5, align 8
  %111 = getelementptr inbounds nuw %struct.SMgrRelationData, ptr %110, i32 0, i32 0
  %112 = getelementptr inbounds nuw %struct.RelFileLocatorBackend, ptr %111, i32 0, i32 1
  %113 = load i32, ptr %112, align 4
  %114 = icmp ne i32 %113, -1
  br i1 %114, label %119, label %115

115:                                              ; preds = %109
  %116 = load ptr, ptr %5, align 8
  %117 = load i32, ptr %6, align 4
  %118 = load ptr, ptr %12, align 8
  call void @register_dirty_segment(ptr noundef %116, i32 noundef %117, ptr noundef %118)
  br label %119

119:                                              ; preds = %115, %109
  %120 = load ptr, ptr %12, align 8
  %121 = getelementptr inbounds nuw %struct._MdfdVec, ptr %120, i32 0, i32 0
  %122 = load i32, ptr %121, align 4
  call void @FileClose(i32 noundef %122)
  %123 = load ptr, ptr %5, align 8
  %124 = load i32, ptr %6, align 4
  %125 = load i32, ptr %10, align 4
  %126 = sub i32 %125, 1
  call void @_fdvec_resize(ptr noundef %123, i32 noundef %124, i32 noundef %126)
  br label %174

127:                                              ; preds = %70
  %128 = load i32, ptr %9, align 4
  %129 = add i32 %128, 131072
  %130 = load i32, ptr %8, align 4
  %131 = icmp ugt i32 %129, %130
  br i1 %131, label %132, label %172

132:                                              ; preds = %127
  call void @llvm.lifetime.start.p0(i64 4, ptr %13) #10
  %133 = load i32, ptr %8, align 4
  %134 = load i32, ptr %9, align 4
  %135 = sub i32 %133, %134
  store i32 %135, ptr %13, align 4
  %136 = load ptr, ptr %12, align 8
  %137 = getelementptr inbounds nuw %struct._MdfdVec, ptr %136, i32 0, i32 0
  %138 = load i32, ptr %137, align 4
  %139 = load i32, ptr %13, align 4
  %140 = zext i32 %139 to i64
  %141 = mul i64 %140, 8192
  %142 = call i32 @FileTruncate(i32 noundef %138, i64 noundef %141, i32 noundef 167772179)
  %143 = icmp slt i32 %142, 0
  br i1 %143, label %144, label %161

144:                                              ; preds = %132
  br label %145

145:                                              ; preds = %144
  br i1 true, label %146, label %148

146:                                              ; preds = %145
  %147 = call zeroext i1 @errstart_cold(i32 noundef 21, ptr noundef null) #12
  br i1 %147, label %150, label %158

148:                                              ; preds = %145
  %149 = call zeroext i1 @errstart(i32 noundef 21, ptr noundef null)
  br i1 %149, label %150, label %158

150:                                              ; preds = %148, %146
  %151 = call i32 @errcode_for_file_access()
  %152 = load ptr, ptr %12, align 8
  %153 = getelementptr inbounds nuw %struct._MdfdVec, ptr %152, i32 0, i32 0
  %154 = load i32, ptr %153, align 4
  %155 = call ptr @FilePathName(i32 noundef %154)
  %156 = load i32, ptr %8, align 4
  %157 = call i32 (ptr, ...) @errmsg(ptr noundef @.str.16, ptr noundef %155, i32 noundef %156)
  call void @errfinish(ptr noundef @.str.2, i32 noundef 1235, ptr noundef @__func__.mdtruncate)
  br label %158

158:                                              ; preds = %150, %148, %146
  unreachable

159:                                              ; No predecessors!
  br label %160

160:                                              ; preds = %159
  br label %161

161:                                              ; preds = %160, %132
  %162 = load ptr, ptr %5, align 8
  %163 = getelementptr inbounds nuw %struct.SMgrRelationData, ptr %162, i32 0, i32 0
  %164 = getelementptr inbounds nuw %struct.RelFileLocatorBackend, ptr %163, i32 0, i32 1
  %165 = load i32, ptr %164, align 4
  %166 = icmp ne i32 %165, -1
  br i1 %166, label %171, label %167

167:                                              ; preds = %161
  %168 = load ptr, ptr %5, align 8
  %169 = load i32, ptr %6, align 4
  %170 = load ptr, ptr %12, align 8
  call void @register_dirty_segment(ptr noundef %168, i32 noundef %169, ptr noundef %170)
  br label %171

171:                                              ; preds = %167, %161
  call void @llvm.lifetime.end.p0(i64 4, ptr %13) #10
  br label %173

172:                                              ; preds = %127
  store i32 5, ptr %11, align 4
  br label %177

173:                                              ; preds = %171
  br label %174

174:                                              ; preds = %173, %119
  %175 = load i32, ptr %10, align 4
  %176 = add i32 %175, -1
  store i32 %176, ptr %10, align 4
  store i32 0, ptr %11, align 4
  br label %177

177:                                              ; preds = %174, %172
  call void @llvm.lifetime.end.p0(i64 8, ptr %12) #10
  %178 = load i32, ptr %11, align 4
  switch i32 %178, label %184 [
    i32 0, label %179
    i32 5, label %180
  ]

179:                                              ; preds = %177
  br label %67, !llvm.loop !19

180:                                              ; preds = %177, %67
  store i32 0, ptr %11, align 4
  br label %181

181:                                              ; preds = %180, %59, %20
  call void @llvm.lifetime.end.p0(i64 4, ptr %10) #10
  call void @llvm.lifetime.end.p0(i64 4, ptr %9) #10
  %182 = load i32, ptr %11, align 4
  switch i32 %182, label %184 [
    i32 0, label %183
    i32 1, label %183
  ]

183:                                              ; preds = %181, %181
  ret void

184:                                              ; preds = %181, %177
  unreachable
}