; Function Attrs: nounwind uwtable
define dso_local void @mdtruncate(ptr noundef captures(none) %0, i32 noundef %1, i32 noundef %2, i32 noundef %3) local_unnamed_addr #0 {
  %5 = icmp ugt i32 %3, %2
  br i1 %5, label %6, label %20

6:                                                ; preds = %4
  %7 = load i8, ptr @InRecovery, align 1, !range !4, !noundef !5
  %8 = trunc nuw i8 %7 to i1
  br i1 %8, label %.thread, label %9

9:                                                ; preds = %6
  %10 = tail call zeroext i1 @errstart_cold(i32 noundef 21, ptr noundef null) #17
  tail call void @llvm.assume(i1 %10)
  %11 = getelementptr inbounds nuw i8, ptr %0, i64 4
  %12 = load i32, ptr %11, align 4
  %13 = load i32, ptr %0, align 8
  %14 = getelementptr inbounds nuw i8, ptr %0, i64 8
  %15 = load i32, ptr %14, align 8
  %16 = getelementptr inbounds nuw i8, ptr %0, i64 12
  %17 = load i32, ptr %16, align 4
  %18 = tail call ptr @GetRelationPath(i32 noundef %12, i32 noundef %13, i32 noundef %15, i32 noundef %17, i32 noundef %1) #15
  %19 = tail call i32 (ptr, ...) @errmsg(ptr noundef nonnull @.str.14, ptr noundef %18, i32 noundef %3, i32 noundef %2) #15
  tail call void @errfinish(ptr noundef nonnull @.str.2, i32 noundef 1180, ptr noundef nonnull @__func__.mdtruncate) #15
  unreachable

20:                                               ; preds = %4
  %21 = icmp eq i32 %3, %2
  br i1 %21, label %.thread, label %22

22:                                               ; preds = %20
  %23 = getelementptr inbounds nuw i8, ptr %0, i64 40
  %24 = sext i32 %1 to i64
  %25 = getelementptr inbounds [4 x i32], ptr %23, i64 0, i64 %24
  %26 = load i32, ptr %25, align 4
  %27 = icmp sgt i32 %26, 0
  br i1 %27, label %.lr.ph, label %.thread

.lr.ph:                                           ; preds = %22
  %28 = getelementptr inbounds nuw i8, ptr %0, i64 56
  %29 = getelementptr inbounds [4 x ptr], ptr %28, i64 0, i64 %24
  %30 = getelementptr inbounds nuw i8, ptr %0, i64 12
  %31 = zext nneg i32 %26 to i64
  br label %32

32:                                               ; preds = %.lr.ph, %91
  %indvars.iv = phi i64 [ %31, %.lr.ph ], [ %indvars.iv.next, %91 ]
  %indvars.iv.next = add nsw i64 %indvars.iv, -1
  %33 = trunc nuw nsw i64 %indvars.iv.next to i32
  %34 = shl i32 %33, 17
  %35 = load ptr, ptr %29, align 8
  %36 = getelementptr inbounds nuw %struct._MdfdVec, ptr %35, i64 %indvars.iv.next
  %37 = icmp ugt i32 %34, %3
  br i1 %37, label %38, label %72

38:                                               ; preds = %32
  %39 = load i32, ptr %36, align 4
  %40 = tail call i32 @FileTruncate(i32 noundef %39, i64 noundef 0, i32 noundef 167772179) #15
  %41 = icmp slt i32 %40, 0
  br i1 %41, label %42, label %48

42:                                               ; preds = %38
  %43 = tail call zeroext i1 @errstart_cold(i32 noundef 21, ptr noundef null) #17
  tail call void @llvm.assume(i1 %43)
  %44 = tail call i32 @errcode_for_file_access() #15
  %45 = load i32, ptr %36, align 4
  %46 = tail call ptr @FilePathName(i32 noundef %45) #15
  %47 = tail call i32 (ptr, ...) @errmsg(ptr noundef nonnull @.str.15, ptr noundef %46) #15
  tail call void @errfinish(ptr noundef nonnull @.str.2, i32 noundef 1208, ptr noundef nonnull @__func__.mdtruncate) #15
  unreachable

48:                                               ; preds = %38
  %49 = load i32, ptr %30, align 4
  %.not49 = icmp eq i32 %49, -1
  br i1 %.not49, label %50, label %51

50:                                               ; preds = %48
  tail call fastcc void @register_dirty_segment(ptr noundef nonnull %0, i32 noundef %1, ptr noundef nonnull %36)
  br label %51

51:                                               ; preds = %50, %48
  %52 = load i32, ptr %36, align 4
  tail call void @FileClose(i32 noundef %52) #15
  %53 = icmp eq i64 %indvars.iv.next, 0
  %54 = load i32, ptr %25, align 4
  br i1 %53, label %55, label %59

55:                                               ; preds = %51
  %56 = icmp sgt i32 %54, 0
  br i1 %56, label %57, label %_fdvec_resize.exit

57:                                               ; preds = %55
  %58 = load ptr, ptr %29, align 8
  tail call void @pfree(ptr noundef %58) #15
  br label %_fdvec_resize.exit.sink.split

59:                                               ; preds = %51
  %60 = icmp eq i32 %54, 0
  br i1 %60, label %61, label %65

61:                                               ; preds = %59
  %62 = load ptr, ptr @MdCxt, align 8
  %63 = shl nuw nsw i64 %indvars.iv.next, 3
  %64 = tail call ptr @MemoryContextAlloc(ptr noundef %62, i64 noundef %63) #15
  br label %_fdvec_resize.exit.sink.split

65:                                               ; preds = %59
  %66 = sext i32 %54 to i64
  %67 = icmp sgt i64 %indvars.iv.next, %66
  br i1 %67, label %68, label %_fdvec_resize.exit

68:                                               ; preds = %65
  %69 = load ptr, ptr %29, align 8
  %70 = shl nuw nsw i64 %indvars.iv.next, 3
  %71 = tail call ptr @repalloc(ptr noundef %69, i64 noundef %70) #15
  br label %_fdvec_resize.exit.sink.split

_fdvec_resize.exit.sink.split:                    ; preds = %68, %61, %57
  %.sink = phi ptr [ null, %57 ], [ %64, %61 ], [ %71, %68 ]
  store ptr %.sink, ptr %29, align 8
  br label %_fdvec_resize.exit

_fdvec_resize.exit:                               ; preds = %_fdvec_resize.exit.sink.split, %55, %65
  store i32 %33, ptr %25, align 4
  br label %91

72:                                               ; preds = %32
  %73 = add i32 %34, 131072
  %74 = icmp ugt i32 %73, %3
  br i1 %74, label %75, label %.thread

75:                                               ; preds = %72
  %76 = sub i32 %3, %34
  %77 = load i32, ptr %36, align 4
  %78 = zext i32 %76 to i64
  %79 = shl nuw nsw i64 %78, 13
  %80 = tail call i32 @FileTruncate(i32 noundef %77, i64 noundef %79, i32 noundef 167772179) #15
  %81 = icmp slt i32 %80, 0
  br i1 %81, label %82, label %88

82:                                               ; preds = %75
  %83 = tail call zeroext i1 @errstart_cold(i32 noundef 21, ptr noundef null) #17
  tail call void @llvm.assume(i1 %83)
  %84 = tail call i32 @errcode_for_file_access() #15
  %85 = load i32, ptr %36, align 4
  %86 = tail call ptr @FilePathName(i32 noundef %85) #15
  %87 = tail call i32 (ptr, ...) @errmsg(ptr noundef nonnull @.str.16, ptr noundef %86, i32 noundef %3) #15
  tail call void @errfinish(ptr noundef nonnull @.str.2, i32 noundef 1235, ptr noundef nonnull @__func__.mdtruncate) #15
  unreachable

88:                                               ; preds = %75
  %89 = load i32, ptr %30, align 4
  %.not = icmp eq i32 %89, -1
  br i1 %.not, label %90, label %91

90:                                               ; preds = %88
  tail call fastcc void @register_dirty_segment(ptr noundef nonnull %0, i32 noundef %1, ptr noundef nonnull %36)
  br label %91

91:                                               ; preds = %_fdvec_resize.exit, %90, %88
  %92 = icmp samesign ugt i64 %indvars.iv, 1
  br i1 %92, label %32, label %.thread

.thread:                                          ; preds = %91, %72, %22, %20, %6
  ret void
}